target datalayout = "e-m:e-p270:32:32-p271:32:32-p272:64:64-i64:64-i128:128-f80:128-n8:16:32:64-S128"
target triple = "x86_64-pc-linux-gnu"

%"class.open3d::core::Dtype" = type { i32, i64, [16 x i8] }
%struct.png_image = type { ptr, i32, i32, i32, i32, i32, i32, i32, [64 x i8] }
%"class.std::__cxx11::basic_string" = type { %"struct.std::__cxx11::basic_string<char>::_Alloc_hider", i64, %union.anon }
%"struct.std::__cxx11::basic_string<char>::_Alloc_hider" = type { ptr }
%union.anon = type { i64, [8 x i8] }
%"class.open3d::t::geometry::Image" = type { %"class.open3d::t::geometry::Geometry", %"class.open3d::core::Tensor" }
%"class.open3d::t::geometry::Geometry" = type { %"class.open3d::core::IsDevice", i32, i32, %"class.std::__cxx11::basic_string" }
%"class.open3d::core::IsDevice" = type { ptr }
%"class.open3d::core::Tensor" = type { %"class.open3d::core::IsDevice", %"class.open3d::core::SizeVector", %"class.open3d::core::SizeVector", ptr, %"class.open3d::core::Dtype", %"class.std::shared_ptr" }
%"class.open3d::core::SizeVector" = type { %"class.open3d::core::SmallVector" }
%"class.open3d::core::SmallVector" = type { %"class.open3d::core::SmallVectorImpl", %"struct.open3d::core::SmallVectorStorage" }
%"class.open3d::core::SmallVectorImpl" = type { %"class.open3d::core::SmallVectorTemplateBase" }
%"class.open3d::core::SmallVectorTemplateBase" = type { %"class.open3d::core::SmallVectorTemplateCommon" }
%"class.open3d::core::SmallVectorTemplateCommon" = type { %"class.open3d::core::SmallVectorBase" }
%"class.open3d::core::SmallVectorBase" = type { ptr, i32, i32 }
%"struct.open3d::core::SmallVectorStorage" = type { [32 x i8] }
%"class.std::shared_ptr" = type { %"class.std::__shared_ptr" }
%"class.std::__shared_ptr" = type { ptr, %"class.std::__shared_count" }
%"class.std::__shared_count" = type { ptr }
%"struct.std::_Vector_base" = type { %"struct.std::_Vector_base<unsigned char, std::allocator<unsigned char>>::_Vector_impl" }
%"struct.std::_Vector_base<unsigned char, std::allocator<unsigned char>>::_Vector_impl" = type { %"struct.std::_Vector_base<unsigned char, std::allocator<unsigned char>>::_Vector_impl_data" }
%"struct.std::_Vector_base<unsigned char, std::allocator<unsigned char>>::_Vector_impl_data" = type { ptr, ptr, ptr }

@.str = private unnamed_addr constant [131 x i8] c"generated/home/dtcxzyw/WorkSpace/Projects/compilers/llvm-opt-benchmark/bench/open3d/Open3D/cpp/open3d/t/io/file_format/FilePNG.cpp\00", align 1
@_ZN6open3d4core6UInt16E = external global %"class.open3d::core::Dtype", align 8
@_ZN6open3d4core5UInt8E = external global %"class.open3d::core::Dtype", align 8
@.str.52 = private unnamed_addr constant [37 x i8] c"Write PNG failed: image has no data.\00", align 1
@.str.53 = private unnamed_addr constant [42 x i8] c"Write PNG failed: unsupported image data.\00", align 1
@.str.54 = private unnamed_addr constant [58 x i8] c"Write PNG failed: quality ({}) must be in the range [0,9]\00", align 1
@__PRETTY_FUNCTION__._ZN6open3d1t2io23WriteImageToPNGInMemoryERSt6vectorIhSaIhEERKNS0_8geometry5ImageEi = private unnamed_addr constant [101 x i8] c"bool open3d::t::io::WriteImageToPNGInMemory(std::vector<uint8_t> &, const t::geometry::Image &, int)\00", align 1
@.str.56 = private unnamed_addr constant [62 x i8] c"Could not compute bytes needed for encoding to PNG in memory.\00", align 1
@.str.57 = private unnamed_addr constant [35 x i8] c"Unable to encode to PNG in memory.\00", align 1

; Function Attrs: inlinehint mustprogress nounwind ssp uwtable
define linkonce_odr noundef ptr @_ZNK6open3d4core6Tensor10GetDataPtrEv(ptr noundef nonnull align 8 dereferenceable(160) %0) #12 comdat align 2 {
  %2 = alloca ptr, align 8
  store ptr %0, ptr %2, align 8, !tbaa !60
  %3 = load ptr, ptr %2, align 8
  %4 = getelementptr inbounds nuw %"class.open3d::core::Tensor", ptr %3, i32 0, i32 3
  %5 = load ptr, ptr %4, align 8, !tbaa !62
  ret ptr %5
}

; Function Attrs: inlinehint mustprogress nounwind ssp uwtable
define linkonce_odr void @_ZNK6open3d4core6Tensor8GetDtypeEv(ptr dead_on_unwind noalias writable sret(%"class.open3d::core::Dtype") align 8 %0, ptr noundef nonnull align 8 dereferenceable(160) %1) #12 comdat align 2 {
  %3 = alloca ptr, align 8
  store ptr %1, ptr %3, align 8, !tbaa !60
  %4 = load ptr, ptr %3, align 8
  %5 = getelementptr inbounds nuw %"class.open3d::core::Tensor", ptr %4, i32 0, i32 4
  call void @llvm.memcpy.p0.p0.i64(ptr align 8 %0, ptr align 8 %5, i64 32, i1 false), !tbaa.struct !32
  ret void
}

; Function Attrs: mustprogress nounwind ssp uwtable
define linkonce_odr noundef nonnull align 1 dereferenceable(1) ptr @_ZNSt6vectorIhSaIhEEixEm(ptr noundef nonnull align 8 dereferenceable(24) %0, i64 noundef %1) #1 comdat align 2 {
  %3 = alloca ptr, align 8
  %4 = alloca i64, align 8
  store ptr %0, ptr %3, align 8, !tbaa !777
  store i64 %1, ptr %4, align 8, !tbaa !35
  %5 = load ptr, ptr %3, align 8
  %6 = getelementptr inbounds nuw %"struct.std::_Vector_base", ptr %5, i32 0, i32 0
  %7 = getelementptr inbounds nuw %"struct.std::_Vector_base<unsigned char, std::allocator<unsigned char>>::_Vector_impl_data", ptr %6, i32 0, i32 0
  %8 = load ptr, ptr %7, align 8, !tbaa !779
  %9 = load i64, ptr %4, align 8, !tbaa !35
  %10 = getelementptr inbounds nuw i8, ptr %8, i64 %9
  ret ptr %10
}

; Function Attrs: mustprogress ssp uwtable
define linkonce_odr noundef ptr @_ZNK6open3d1t8geometry5Image10GetDataPtrEv(ptr noundef nonnull align 8 dereferenceable(208) %0) #3 comdat align 2 {
  %2 = alloca ptr, align 8
  store ptr %0, ptr %2, align 8, !tbaa !21
  %3 = load ptr, ptr %2, align 8
  %4 = getelementptr inbounds nuw %"class.open3d::t::geometry::Image", ptr %3, i32 0, i32 1
  %5 = call noundef ptr @_ZNK6open3d4core6Tensor10GetDataPtrEv(ptr noundef nonnull align 8 dereferenceable(160) %4)
  ret ptr %5
}

; Function Attrs: alwaysinline mustprogress nounwind
define internal ptr @memset.inline(ptr nonnull %0, i32 %1, i64 %2) #4 {
  %4 = alloca ptr, align 8
  %5 = alloca i32, align 4
  %6 = alloca i64, align 8
  store ptr %0, ptr %4, align 8, !tbaa !38
  store i32 %1, ptr %5, align 4, !tbaa !39
  store i64 %2, ptr %6, align 8, !tbaa !35
  %7 = load ptr, ptr %4, align 8, !tbaa !38
  %8 = load i32, ptr %5, align 4, !tbaa !39
  %9 = load i64, ptr %6, align 8, !tbaa !35
  %10 = load ptr, ptr %4, align 8, !tbaa !38
  %11 = call i64 @llvm.objectsize.i64.p0(ptr %10, i1 false, i1 true, i1 false)
  %12 = call ptr @__memset_chk(ptr noundef %7, i32 noundef %8, i64 noundef %9, i64 noundef %11) #25
  ret ptr %12
}

; Function Attrs: mustprogress ssp uwtable
define linkonce_odr void @_ZNK6open3d1t8geometry5Image8GetDtypeEv(ptr dead_on_unwind noalias writable sret(%"class.open3d::core::Dtype") align 8 %0, ptr noundef nonnull align 8 dereferenceable(208) %1) #3 comdat align 2 {
  %3 = alloca ptr, align 8
  store ptr %1, ptr %3, align 8, !tbaa !21
  %4 = load ptr, ptr %3, align 8
  %5 = getelementptr inbounds nuw %"class.open3d::t::geometry::Image", ptr %4, i32 0, i32 1
  call void @_ZNK6open3d4core6Tensor8GetDtypeEv(ptr dead_on_unwind writable sret(%"class.open3d::core::Dtype") align 8 %0, ptr noundef nonnull align 8 dereferenceable(160) %5)
  ret void
}

; Function Attrs: mustprogress ssp uwtable
define noundef zeroext i1 @_ZN6open3d1t2io23WriteImageToPNGInMemoryERSt6vectorIhSaIhEERKNS0_8geometry5ImageEi(ptr noundef nonnull align 8 dereferenceable(24) %0, ptr noundef nonnull align 8 dereferenceable(208) %1, i32 noundef %2) #3 {
  %4 = alloca i1, align 1
  %5 = alloca ptr, align 8
  %6 = alloca ptr, align 8
  %7 = alloca i32, align 4
  %8 = alloca %"class.open3d::core::Dtype", align 8
  %9 = alloca %"class.open3d::core::Dtype", align 8
  %10 = alloca %struct.png_image, align 8
  %11 = alloca i64, align 8
  %12 = alloca i32, align 4
  store ptr %0, ptr %5, align 8, !tbaa !777
  store ptr %1, ptr %6, align 8, !tbaa !21
  store i32 %2, ptr %7, align 4, !tbaa !39
  %13 = load ptr, ptr %6, align 8, !tbaa !21
  %14 = load ptr, ptr %13, align 8, !tbaa !27
  %15 = getelementptr inbounds ptr, ptr %14, i64 4
  %16 = load ptr, ptr %15, align 8
  %17 = call noundef zeroext i1 %16(ptr noundef nonnull align 8 dereferenceable(208) %13)
  br i1 %17, label %18, label %19

18:                                               ; preds = %3
  call void @_ZN6open3d7utility6Logger11LogWarning_IJEEEvPKciS4_S4_DpOT_(ptr noundef @.str, i32 noundef 114, ptr noundef @__PRETTY_FUNCTION__._ZN6open3d1t2io23WriteImageToPNGInMemoryERSt6vectorIhSaIhEERKNS0_8geometry5ImageEi, ptr noundef @.str.52)
  store i1 false, ptr %4, align 1
  br label %61

19:                                               ; preds = %3
  call void @llvm.lifetime.start.p0(i64 32, ptr %8) #25
  %20 = load ptr, ptr %6, align 8, !tbaa !21
  call void @_ZNK6open3d1t8geometry5Image8GetDtypeEv(ptr dead_on_unwind writable sret(%"class.open3d::core::Dtype") align 8 %8, ptr noundef nonnull align 8 dereferenceable(208) %20)
  %21 = call noundef zeroext i1 @_ZNK6open3d4core5DtypeneERKS1_(ptr noundef nonnull align 8 dereferenceable(32) %8, ptr noundef nonnull align 8 dereferenceable(32) @_ZN6open3d4core5UInt8E)
  call void @llvm.lifetime.start.p0(i64 32, ptr %9) #25
  br i1 %21, label %22, label %25

22:                                               ; preds = %19
  %23 = load ptr, ptr %6, align 8, !tbaa !21
  call void @_ZNK6open3d1t8geometry5Image8GetDtypeEv(ptr dead_on_unwind writable sret(%"class.open3d::core::Dtype") align 8 %9, ptr noundef nonnull align 8 dereferenceable(208) %23)
  %24 = call noundef zeroext i1 @_ZNK6open3d4core5DtypeneERKS1_(ptr noundef nonnull align 8 dereferenceable(32) %9, ptr noundef nonnull align 8 dereferenceable(32) @_ZN6open3d4core6UInt16E)
  br label %25

25:                                               ; preds = %22, %19
  %26 = phi i1 [ false, %19 ], [ %24, %22 ]
  call void @llvm.lifetime.end.p0(i64 32, ptr %9) #25
  call void @llvm.lifetime.end.p0(i64 32, ptr %8) #25
  br i1 %26, label %27, label %28

27:                                               ; preds = %25
  call void @_ZN6open3d7utility6Logger11LogWarning_IJEEEvPKciS4_S4_DpOT_(ptr noundef @.str, i32 noundef 118, ptr noundef @__PRETTY_FUNCTION__._ZN6open3d1t2io23WriteImageToPNGInMemoryERSt6vectorIhSaIhEERKNS0_8geometry5ImageEi, ptr noundef @.str.53)
  store i1 false, ptr %4, align 1
  br label %61

28:                                               ; preds = %25
  %29 = load i32, ptr %7, align 4, !tbaa !39
  %30 = icmp eq i32 %29, -1
  br i1 %30, label %31, label %32

31:                                               ; preds = %28
  store i32 6, ptr %7, align 4, !tbaa !39
  br label %32

32:                                               ; preds = %31, %28
  %33 = load i32, ptr %7, align 4, !tbaa !39
  %34 = icmp slt i32 %33, 0
  br i1 %34, label %38, label %35

35:                                               ; preds = %32
  %36 = load i32, ptr %7, align 4, !tbaa !39
  %37 = icmp sgt i32 %36, 9
  br i1 %37, label %38, label %39

38:                                               ; preds = %35, %32
  call void @_ZN6open3d7utility6Logger11LogWarning_IJRiEEEvPKciS5_S5_DpOT_(ptr noundef @.str, i32 noundef 128, ptr noundef @__PRETTY_FUNCTION__._ZN6open3d1t2io23WriteImageToPNGInMemoryERSt6vectorIhSaIhEERKNS0_8geometry5ImageEi, ptr noundef @.str.54, ptr noundef nonnull align 4 dereferenceable(4) %7)
  store i1 false, ptr %4, align 1
  br label %61

39:                                               ; preds = %35
  call void @llvm.lifetime.start.p0(i64 104, ptr %10) #25
  %40 = call ptr @memset.inline(ptr noundef %10, i32 noundef 0, i64 noundef 104) #25
  %41 = getelementptr inbounds nuw %struct.png_image, ptr %10, i32 0, i32 1
  store i32 1, ptr %41, align 8, !tbaa !23
  %42 = load ptr, ptr %6, align 8, !tbaa !21
  %43 = load i32, ptr %7, align 4, !tbaa !39
  call void @_ZN6open3d1t2ioL20SetPNGImageFromImageERKNS0_8geometry5ImageEiR9png_image(ptr noundef nonnull align 8 dereferenceable(208) %42, i32 noundef %43, ptr noundef nonnull align 8 dereferenceable(104) %10)
  call void @llvm.lifetime.start.p0(i64 8, ptr %11) #25
  store i64 0, ptr %11, align 8, !tbaa !35
  %44 = load ptr, ptr %6, align 8, !tbaa !21
  %45 = call noundef ptr @_ZNK6open3d1t8geometry5Image10GetDataPtrEv(ptr noundef nonnull align 8 dereferenceable(208) %44)
  %46 = call i32 @png_image_write_to_memory(ptr noundef %10, ptr noundef null, ptr noundef %11, i32 noundef 0, ptr noundef %45, i32 noundef 0, ptr noundef null)
  %47 = icmp eq i32 %46, 0
  br i1 %47, label %48, label %49

48:                                               ; preds = %39
  call void @_ZN6open3d7utility6Logger11LogWarning_IJEEEvPKciS4_S4_DpOT_(ptr noundef @.str, i32 noundef 142, ptr noundef @__PRETTY_FUNCTION__._ZN6open3d1t2io23WriteImageToPNGInMemoryERSt6vectorIhSaIhEERKNS0_8geometry5ImageEi, ptr noundef @.str.56)
  store i1 false, ptr %4, align 1
  store i32 1, ptr %12, align 4
  br label %60

49:                                               ; preds = %39
  %50 = load ptr, ptr %5, align 8, !tbaa !777
  %51 = load i64, ptr %11, align 8, !tbaa !35
  call void @_ZNSt6vectorIhSaIhEE6resizeEm(ptr noundef nonnull align 8 dereferenceable(24) %50, i64 noundef %51)
  %52 = load ptr, ptr %5, align 8, !tbaa !777
  %53 = call noundef nonnull align 1 dereferenceable(1) ptr @_ZNSt6vectorIhSaIhEEixEm(ptr noundef nonnull align 8 dereferenceable(24) %52, i64 noundef 0) #25
  %54 = load ptr, ptr %6, align 8, !tbaa !21
  %55 = call noundef ptr @_ZNK6open3d1t8geometry5Image10GetDataPtrEv(ptr noundef nonnull align 8 dereferenceable(208) %54)
  %56 = call i32 @png_image_write_to_memory(ptr noundef %10, ptr noundef %53, ptr noundef %11, i32 noundef 0, ptr noundef %55, i32 noundef 0, ptr noundef null)
  %57 = icmp eq i32 %56, 0
  br i1 %57, label %58, label %59

58:                                               ; preds = %49
  call void @_ZN6open3d7utility6Logger11LogWarning_IJEEEvPKciS4_S4_DpOT_(ptr noundef @.str, i32 noundef 148, ptr noundef @__PRETTY_FUNCTION__._ZN6open3d1t2io23WriteImageToPNGInMemoryERSt6vectorIhSaIhEERKNS0_8geometry5ImageEi, ptr noundef @.str.57)
  store i1 false, ptr %4, align 1
  store i32 1, ptr %12, align 4
  br label %60

59:                                               ; preds = %49
  store i1 true, ptr %4, align 1
  store i32 1, ptr %12, align 4
  br label %60

60:                                               ; preds = %59, %58, %48
  call void @llvm.lifetime.end.p0(i64 8, ptr %11) #25
  call void @llvm.lifetime.end.p0(i64 104, ptr %10) #25
  br label %61

61:                                               ; preds = %60, %38, %27, %18
  %62 = load i1, ptr %4, align 1
  ret i1 %62
}