; Function Attrs: mustprogress ssp uwtable
define noundef zeroext i1 @_ZN6open3d1t2io23WriteImageToPNGInMemoryERSt6vectorIhSaIhEERKNS0_8geometry5ImageEi(ptr noundef nonnull align 8 dereferenceable(24) %0, ptr noundef nonnull align 8 dereferenceable(208) %1, i32 noundef %2) local_unnamed_addr #1 {
  %4 = alloca i32, align 4
  %5 = alloca %"class.open3d::core::Dtype", align 8
  %6 = alloca %"class.open3d::core::Dtype", align 8
  %7 = alloca %struct.png_image, align 8
  %8 = alloca i64, align 8
  store i32 %2, ptr %4, align 4, !tbaa !142
  %9 = load ptr, ptr %1, align 8, !tbaa !24
  %10 = getelementptr inbounds nuw i8, ptr %9, i64 32
  %11 = load ptr, ptr %10, align 8
  %12 = tail call noundef zeroext i1 %11(ptr noundef nonnull align 8 dereferenceable(208) %1)
  br i1 %12, label %13, label %14

13:                                               ; preds = %3
  tail call void @_ZN6open3d7utility6Logger11LogWarning_IJEEEvPKciS4_S4_DpOT_(ptr noundef nonnull @.str, i32 noundef 114, ptr noundef nonnull @__PRETTY_FUNCTION__._ZN6open3d1t2io23WriteImageToPNGInMemoryERSt6vectorIhSaIhEERKNS0_8geometry5ImageEi, ptr noundef nonnull @.str.52)
  br label %39

14:                                               ; preds = %3
  call void @llvm.lifetime.start.p0(i64 32, ptr nonnull %5) #27
  %15 = getelementptr inbounds nuw i8, ptr %1, i64 160
  call void @llvm.memcpy.p0.p0.i64(ptr noundef nonnull align 8 dereferenceable(32) %5, ptr noundef nonnull align 8 dereferenceable(32) %15, i64 32, i1 false), !tbaa.struct !19
  %16 = call noundef zeroext i1 @_ZNK6open3d4core5DtypeneERKS1_(ptr noundef nonnull align 8 dereferenceable(32) %5, ptr noundef nonnull align 8 dereferenceable(32) @_ZN6open3d4core5UInt8E)
  call void @llvm.lifetime.start.p0(i64 32, ptr nonnull %6) #27
  br i1 %16, label %17, label %.critedge

17:                                               ; preds = %14
  call void @llvm.memcpy.p0.p0.i64(ptr noundef nonnull align 8 dereferenceable(32) %6, ptr noundef nonnull align 8 dereferenceable(32) %15, i64 32, i1 false), !tbaa.struct !19
  %18 = call noundef zeroext i1 @_ZNK6open3d4core5DtypeneERKS1_(ptr noundef nonnull align 8 dereferenceable(32) %6, ptr noundef nonnull align 8 dereferenceable(32) @_ZN6open3d4core6UInt16E)
  call void @llvm.lifetime.end.p0(i64 32, ptr nonnull %6) #27
  call void @llvm.lifetime.end.p0(i64 32, ptr nonnull %5) #27
  br i1 %18, label %19, label %20

19:                                               ; preds = %17
  call void @_ZN6open3d7utility6Logger11LogWarning_IJEEEvPKciS4_S4_DpOT_(ptr noundef nonnull @.str, i32 noundef 118, ptr noundef nonnull @__PRETTY_FUNCTION__._ZN6open3d1t2io23WriteImageToPNGInMemoryERSt6vectorIhSaIhEERKNS0_8geometry5ImageEi, ptr noundef nonnull @.str.53)
  br label %39

.critedge:                                        ; preds = %14
  call void @llvm.lifetime.end.p0(i64 32, ptr nonnull %6) #27
  call void @llvm.lifetime.end.p0(i64 32, ptr nonnull %5) #27
  br label %20

20:                                               ; preds = %.critedge, %17
  %21 = icmp eq i32 %2, -1
  br i1 %21, label %.thread, label %22

22:                                               ; preds = %20
  %or.cond = icmp ugt i32 %2, 9
  br i1 %or.cond, label %23, label %.thread

23:                                               ; preds = %22
  call void @_ZN6open3d7utility6Logger11LogWarning_IJRiEEEvPKciS5_S5_DpOT_(ptr noundef nonnull @.str, i32 noundef 128, ptr noundef nonnull @__PRETTY_FUNCTION__._ZN6open3d1t2io23WriteImageToPNGInMemoryERSt6vectorIhSaIhEERKNS0_8geometry5ImageEi, ptr noundef nonnull @.str.54, ptr noundef nonnull align 4 dereferenceable(4) %4)
  br label %39

.thread:                                          ; preds = %20, %22
  %24 = phi i32 [ %2, %22 ], [ 6, %20 ]
  call void @llvm.lifetime.start.p0(i64 104, ptr nonnull %7) #27
  call void @llvm.memset.p0.i64(ptr noundef nonnull align 8 dereferenceable(104) %7, i8 noundef 0, i64 noundef 104, i1 noundef false) #27
  %25 = getelementptr inbounds nuw i8, ptr %7, i64 8
  store i32 1, ptr %25, align 8, !tbaa !4
  call fastcc void @_ZN6open3d1t2ioL20SetPNGImageFromImageERKNS0_8geometry5ImageEiR9png_image(ptr noundef nonnull align 8 dereferenceable(208) %1, i32 noundef %24, ptr noundef nonnull align 8 dereferenceable(104) %7)
  call void @llvm.lifetime.start.p0(i64 8, ptr nonnull %8) #27
  store i64 0, ptr %8, align 8, !tbaa !22
  %26 = getelementptr inbounds nuw i8, ptr %1, i64 152
  %27 = load ptr, ptr %26, align 8, !tbaa !26
  %28 = call i32 @png_image_write_to_memory(ptr noundef nonnull %7, ptr noundef null, ptr noundef nonnull %8, i32 noundef 0, ptr noundef %27, i32 noundef 0, ptr noundef null)
  %29 = icmp eq i32 %28, 0
  br i1 %29, label %30, label %31

30:                                               ; preds = %.thread
  call void @_ZN6open3d7utility6Logger11LogWarning_IJEEEvPKciS4_S4_DpOT_(ptr noundef nonnull @.str, i32 noundef 142, ptr noundef nonnull @__PRETTY_FUNCTION__._ZN6open3d1t2io23WriteImageToPNGInMemoryERSt6vectorIhSaIhEERKNS0_8geometry5ImageEi, ptr noundef nonnull @.str.56)
  br label %38

31:                                               ; preds = %.thread
  %32 = load i64, ptr %8, align 8, !tbaa !22
  call void @_ZNSt6vectorIhSaIhEE6resizeEm(ptr noundef nonnull align 8 dereferenceable(24) %0, i64 noundef %32)
  %33 = load ptr, ptr %0, align 8, !tbaa !633
  %34 = load ptr, ptr %26, align 8, !tbaa !26
  %35 = call i32 @png_image_write_to_memory(ptr noundef nonnull %7, ptr noundef nonnull %33, ptr noundef nonnull %8, i32 noundef 0, ptr noundef %34, i32 noundef 0, ptr noundef null)
  %36 = icmp eq i32 %35, 0
  br i1 %36, label %37, label %38

37:                                               ; preds = %31
  call void @_ZN6open3d7utility6Logger11LogWarning_IJEEEvPKciS4_S4_DpOT_(ptr noundef nonnull @.str, i32 noundef 148, ptr noundef nonnull @__PRETTY_FUNCTION__._ZN6open3d1t2io23WriteImageToPNGInMemoryERSt6vectorIhSaIhEERKNS0_8geometry5ImageEi, ptr noundef nonnull @.str.57)
  br label %38

38:                                               ; preds = %31, %37, %30
  %.1 = phi i1 [ false, %30 ], [ false, %37 ], [ true, %31 ]
  call void @llvm.lifetime.end.p0(i64 8, ptr nonnull %8) #27
  call void @llvm.lifetime.end.p0(i64 104, ptr nonnull %7) #27
  br label %39

39:                                               ; preds = %38, %23, %19, %13
  %.0 = phi i1 [ false, %13 ], [ false, %19 ], [ false, %23 ], [ %.1, %38 ]
  ret i1 %.0
}